; Function Attrs: mustprogress uwtable
define void @_Z21common_log_set_prefixP10common_logb(ptr noundef %0, i1 noundef zeroext %1) local_unnamed_addr #5 personality ptr @__gxx_personality_v0 {
  %3 = tail call noundef i32 @pthread_mutex_lock(ptr noundef nonnull align 8 dereferenceable(208) %0) #24
  %.not.i.i.i = icmp eq i32 %3, 0
  br i1 %.not.i.i.i, label %_ZN10common_log10set_prefixEb.exit, label %4

4:                                                ; preds = %2
  tail call void @_ZSt20__throw_system_errori(i32 noundef %3) #26
  unreachable

_ZN10common_log10set_prefixEb.exit:               ; preds = %2
  %5 = zext i1 %1 to i8
  %6 = getelementptr inbounds nuw i8, ptr %0, i64 104
  store i8 %5, ptr %6, align 8, !tbaa !59
  %7 = tail call noundef i32 @pthread_mutex_unlock(ptr noundef nonnull align 8 dereferenceable(208) %0) #24
  ret void
}